target datalayout = "e-m:e-p270:32:32-p271:32:32-p272:64:64-i64:64-i128:128-f80:128-n8:16:32:64-S128"
target triple = "x86_64-pc-linux-gnu"

%class.btContinuousConvexCollision = type { %class.btConvexCast, ptr, ptr, ptr, ptr, ptr }
%class.btConvexCast = type { ptr }

@_ZTV12btConvexCast = available_externally unnamed_addr constant { [5 x ptr] } { [5 x ptr] [ptr null, ptr @_ZTI12btConvexCast, ptr @_ZN12btConvexCastD1Ev, ptr @_ZN12btConvexCastD0Ev, ptr @__cxa_pure_virtual] }, align 8

; Function Attrs: inlinehint mustprogress nounwind uwtable
define linkonce_odr dso_local void @_ZN12btConvexCastC2Ev(ptr noundef nonnull align 8 dereferenceable(8) %0) unnamed_addr #2 comdat align 2 {
  %2 = alloca ptr, align 8
  store ptr %0, ptr %2, align 8, !tbaa !30
  %3 = load ptr, ptr %2, align 8
  store ptr getelementptr inbounds inrange(-16, 24) ({ [5 x ptr] }, ptr @_ZTV12btConvexCast, i32 0, i32 0, i32 2), ptr %3, align 8, !tbaa !20
  ret void
}

; Function Attrs: mustprogress nounwind uwtable
define dso_local void @_ZN27btContinuousConvexCollisionC2EPK13btConvexShapeS2_P22btVoronoiSimplexSolverP30btConvexPenetrationDepthSolver(ptr noundef nonnull align 8 dereferenceable(48) %0, ptr noundef %1, ptr noundef %2, ptr noundef %3, ptr noundef %4) unnamed_addr #1 align 2 {
  %6 = alloca ptr, align 8
  %7 = alloca ptr, align 8
  %8 = alloca ptr, align 8
  %9 = alloca ptr, align 8
  %10 = alloca ptr, align 8
  store ptr %0, ptr %6, align 8, !tbaa !12
  store ptr %1, ptr %7, align 8, !tbaa !14
  store ptr %2, ptr %8, align 8, !tbaa !14
  store ptr %3, ptr %9, align 8, !tbaa !16
  store ptr %4, ptr %10, align 8, !tbaa !18
  %11 = load ptr, ptr %6, align 8
  call void @_ZN12btConvexCastC2Ev(ptr noundef nonnull align 8 dereferenceable(8) %11) #14
  store ptr getelementptr inbounds inrange(-16, 24) ({ [5 x ptr] }, ptr @_ZTV27btContinuousConvexCollision, i32 0, i32 0, i32 2), ptr %11, align 8, !tbaa !20
  %12 = getelementptr inbounds nuw %class.btContinuousConvexCollision, ptr %11, i32 0, i32 1
  %13 = load ptr, ptr %9, align 8, !tbaa !16
  store ptr %13, ptr %12, align 8, !tbaa !22
  %14 = getelementptr inbounds nuw %class.btContinuousConvexCollision, ptr %11, i32 0, i32 2
  %15 = load ptr, ptr %10, align 8, !tbaa !18
  store ptr %15, ptr %14, align 8, !tbaa !26
  %16 = getelementptr inbounds nuw %class.btContinuousConvexCollision, ptr %11, i32 0, i32 3
  %17 = load ptr, ptr %7, align 8, !tbaa !14
  store ptr %17, ptr %16, align 8, !tbaa !27
  %18 = getelementptr inbounds nuw %class.btContinuousConvexCollision, ptr %11, i32 0, i32 4
  %19 = load ptr, ptr %8, align 8, !tbaa !14
  store ptr %19, ptr %18, align 8, !tbaa !28
  %20 = getelementptr inbounds nuw %class.btContinuousConvexCollision, ptr %11, i32 0, i32 5
  store ptr null, ptr %20, align 8, !tbaa !29
  ret void
}